target datalayout = "e-m:e-p270:32:32-p271:32:32-p272:64:64-i64:64-i128:128-f80:128-n8:16:32:64-S128"
target triple = "x86_64-pc-linux-gnu"

%"class.Luau::Variant" = type { i32, [4 x i8], [144 x i8] }

@.str.67 = private unnamed_addr constant [5 x i8] c"type\00", align 1

; Function Attrs: mustprogress nounwind uwtable
define linkonce_odr dso_local void @_ZN4Luau7VariantIJNS_25TypeFunctionPrimitiveTypeENS_19TypeFunctionAnyTypeENS_23TypeFunctionUnknownTypeENS_21TypeFunctionNeverTypeENS_25TypeFunctionSingletonTypeENS_21TypeFunctionUnionTypeENS_28TypeFunctionIntersectionTypeENS_24TypeFunctionNegationTypeENS_24TypeFunctionFunctionTypeENS_21TypeFunctionTableTypeENS_21TypeFunctionClassTypeENS_23TypeFunctionGenericTypeEEED2Ev(ptr noundef nonnull align 8 dereferenceable(152) %0) unnamed_addr #2 comdat align 2 personality ptr @__gxx_personality_v0 {
  %2 = alloca ptr, align 8
  store ptr %0, ptr %2, align 8, !tbaa !31
  %3 = load ptr, ptr %2, align 8
  %4 = getelementptr inbounds nuw %"class.Luau::Variant", ptr %3, i32 0, i32 0
  %5 = load i32, ptr %4, align 8, !tbaa !61
  %6 = sext i32 %5 to i64
  %7 = getelementptr inbounds [12 x ptr], ptr @_ZN4Luau7VariantIJNS_25TypeFunctionPrimitiveTypeENS_19TypeFunctionAnyTypeENS_23TypeFunctionUnknownTypeENS_21TypeFunctionNeverTypeENS_25TypeFunctionSingletonTypeENS_21TypeFunctionUnionTypeENS_28TypeFunctionIntersectionTypeENS_24TypeFunctionNegationTypeENS_24TypeFunctionFunctionTypeENS_21TypeFunctionTableTypeENS_21TypeFunctionClassTypeENS_23TypeFunctionGenericTypeEEE9tableDtorE, i64 0, i64 %6
  %8 = load ptr, ptr %7, align 8, !tbaa !22
  %9 = getelementptr inbounds nuw %"class.Luau::Variant", ptr %3, i32 0, i32 2
  invoke void %8(ptr noundef %9)
          to label %10 unwind label %11

10:                                               ; preds = %1
  ret void

11:                                               ; preds = %1
  %12 = landingpad { ptr, i32 }
          catch ptr null
  %13 = extractvalue { ptr, i32 } %12, 0
  call void @__clang_call_terminate(ptr %13) #19
  unreachable
}

; Function Attrs: mustprogress uwtable
define linkonce_odr dso_local void @_ZN4Luau7VariantIJNS_25TypeFunctionPrimitiveTypeENS_19TypeFunctionAnyTypeENS_23TypeFunctionUnknownTypeENS_21TypeFunctionNeverTypeENS_25TypeFunctionSingletonTypeENS_21TypeFunctionUnionTypeENS_28TypeFunctionIntersectionTypeENS_24TypeFunctionNegationTypeENS_24TypeFunctionFunctionTypeENS_21TypeFunctionTableTypeENS_21TypeFunctionClassTypeENS_23TypeFunctionGenericTypeEEEC2EOSD_(ptr noundef nonnull align 8 dereferenceable(152) %0, ptr noundef nonnull align 8 dereferenceable(152) %1) unnamed_addr #3 comdat align 2 {
  %3 = alloca ptr, align 8
  %4 = alloca ptr, align 8
  store ptr %0, ptr %3, align 8, !tbaa !31
  store ptr %1, ptr %4, align 8, !tbaa !31
  %5 = load ptr, ptr %3, align 8
  %6 = load ptr, ptr %4, align 8, !tbaa !31
  %7 = getelementptr inbounds nuw %"class.Luau::Variant", ptr %6, i32 0, i32 0
  %8 = load i32, ptr %7, align 8, !tbaa !61
  %9 = getelementptr inbounds nuw %"class.Luau::Variant", ptr %5, i32 0, i32 0
  store i32 %8, ptr %9, align 8, !tbaa !61
  %10 = getelementptr inbounds nuw %"class.Luau::Variant", ptr %5, i32 0, i32 0
  %11 = load i32, ptr %10, align 8, !tbaa !61
  %12 = sext i32 %11 to i64
  %13 = getelementptr inbounds [12 x ptr], ptr @_ZN4Luau7VariantIJNS_25TypeFunctionPrimitiveTypeENS_19TypeFunctionAnyTypeENS_23TypeFunctionUnknownTypeENS_21TypeFunctionNeverTypeENS_25TypeFunctionSingletonTypeENS_21TypeFunctionUnionTypeENS_28TypeFunctionIntersectionTypeENS_24TypeFunctionNegationTypeENS_24TypeFunctionFunctionTypeENS_21TypeFunctionTableTypeENS_21TypeFunctionClassTypeENS_23TypeFunctionGenericTypeEEE9tableMoveE, i64 0, i64 %12
  %14 = load ptr, ptr %13, align 8, !tbaa !22
  %15 = getelementptr inbounds nuw %"class.Luau::Variant", ptr %5, i32 0, i32 2
  %16 = load ptr, ptr %4, align 8, !tbaa !31
  %17 = getelementptr inbounds nuw %"class.Luau::Variant", ptr %16, i32 0, i32 2
  call void %14(ptr noundef %15, ptr noundef %17)
  ret void
}

; Function Attrs: mustprogress uwtable
define dso_local void @_ZN4Luau17allocTypeUserDataEP9lua_StateNS_7VariantIJNS_25TypeFunctionPrimitiveTypeENS_19TypeFunctionAnyTypeENS_23TypeFunctionUnknownTypeENS_21TypeFunctionNeverTypeENS_25TypeFunctionSingletonTypeENS_21TypeFunctionUnionTypeENS_28TypeFunctionIntersectionTypeENS_24TypeFunctionNegationTypeENS_24TypeFunctionFunctionTypeENS_21TypeFunctionTableTypeENS_21TypeFunctionClassTypeENS_23TypeFunctionGenericTypeEEEE(ptr noundef %0, ptr noundef %1) #3 personality ptr @__gxx_personality_v0 {
  %3 = alloca ptr, align 8
  %4 = alloca ptr, align 8
  %5 = alloca ptr, align 8
  %6 = alloca %"class.Luau::Variant", align 8
  %7 = alloca ptr, align 8
  %8 = alloca i32, align 4
  store ptr %0, ptr %3, align 8, !tbaa !25
  store ptr %1, ptr %4, align 8, !tbaa !31
  call void @llvm.lifetime.start.p0(i64 8, ptr %5) #17
  %9 = load ptr, ptr %3, align 8, !tbaa !25
  %10 = call noundef ptr @_Z21lua_newuserdatataggedP9lua_Statemi(ptr noundef %9, i64 noundef 8, i32 noundef 42)
  store ptr %10, ptr %5, align 8, !tbaa !60
  %11 = load ptr, ptr %3, align 8, !tbaa !25
  call void @_ZN4Luau7VariantIJNS_25TypeFunctionPrimitiveTypeENS_19TypeFunctionAnyTypeENS_23TypeFunctionUnknownTypeENS_21TypeFunctionNeverTypeENS_25TypeFunctionSingletonTypeENS_21TypeFunctionUnionTypeENS_28TypeFunctionIntersectionTypeENS_24TypeFunctionNegationTypeENS_24TypeFunctionFunctionTypeENS_21TypeFunctionTableTypeENS_21TypeFunctionClassTypeENS_23TypeFunctionGenericTypeEEEC2EOSD_(ptr noundef nonnull align 8 dereferenceable(152) %6, ptr noundef nonnull align 8 dereferenceable(152) %1)
  %12 = invoke noundef ptr @_ZN4Luau24allocateTypeFunctionTypeEP9lua_StateNS_7VariantIJNS_25TypeFunctionPrimitiveTypeENS_19TypeFunctionAnyTypeENS_23TypeFunctionUnknownTypeENS_21TypeFunctionNeverTypeENS_25TypeFunctionSingletonTypeENS_21TypeFunctionUnionTypeENS_28TypeFunctionIntersectionTypeENS_24TypeFunctionNegationTypeENS_24TypeFunctionFunctionTypeENS_21TypeFunctionTableTypeENS_21TypeFunctionClassTypeENS_23TypeFunctionGenericTypeEEEE(ptr noundef %11, ptr noundef %6)
          to label %13 unwind label %19

13:                                               ; preds = %2
  %14 = load ptr, ptr %5, align 8, !tbaa !60
  store ptr %12, ptr %14, align 8, !tbaa !45
  call void @_ZN4Luau7VariantIJNS_25TypeFunctionPrimitiveTypeENS_19TypeFunctionAnyTypeENS_23TypeFunctionUnknownTypeENS_21TypeFunctionNeverTypeENS_25TypeFunctionSingletonTypeENS_21TypeFunctionUnionTypeENS_28TypeFunctionIntersectionTypeENS_24TypeFunctionNegationTypeENS_24TypeFunctionFunctionTypeENS_21TypeFunctionTableTypeENS_21TypeFunctionClassTypeENS_23TypeFunctionGenericTypeEEED2Ev(ptr noundef nonnull align 8 dereferenceable(152) %6) #17
  %15 = load ptr, ptr %3, align 8, !tbaa !25
  %16 = call noundef i32 @_Z12lua_getfieldP9lua_StateiPKc(ptr noundef %15, i32 noundef -10000, ptr noundef @.str.67)
  %17 = load ptr, ptr %3, align 8, !tbaa !25
  %18 = call noundef i32 @_Z16lua_setmetatableP9lua_Statei(ptr noundef %17, i32 noundef -2)
  call void @llvm.lifetime.end.p0(i64 8, ptr %5) #17
  ret void

19:                                               ; preds = %2
  %20 = landingpad { ptr, i32 }
          cleanup
  %21 = extractvalue { ptr, i32 } %20, 0
  store ptr %21, ptr %7, align 8
  %22 = extractvalue { ptr, i32 } %20, 1
  store i32 %22, ptr %8, align 4
  call void @_ZN4Luau7VariantIJNS_25TypeFunctionPrimitiveTypeENS_19TypeFunctionAnyTypeENS_23TypeFunctionUnknownTypeENS_21TypeFunctionNeverTypeENS_25TypeFunctionSingletonTypeENS_21TypeFunctionUnionTypeENS_28TypeFunctionIntersectionTypeENS_24TypeFunctionNegationTypeENS_24TypeFunctionFunctionTypeENS_21TypeFunctionTableTypeENS_21TypeFunctionClassTypeENS_23TypeFunctionGenericTypeEEED2Ev(ptr noundef nonnull align 8 dereferenceable(152) %6) #17
  call void @llvm.lifetime.end.p0(i64 8, ptr %5) #17
  br label %23

23:                                               ; preds = %19
  %24 = load ptr, ptr %7, align 8
  %25 = load i32, ptr %8, align 4
  %26 = insertvalue { ptr, i32 } poison, ptr %24, 0
  %27 = insertvalue { ptr, i32 } %26, i32 %25, 1
  resume { ptr, i32 } %27
}